; Function Attrs: mustprogress uwtable
define void @_ZN2cv3hal13addRNGBias32fEPfPKfi(ptr nocapture noundef %0, ptr nocapture noundef readonly %1, i32 noundef %2) local_unnamed_addr #0 personality ptr @__gxx_personality_v0 {
  %4 = alloca %"class.cv::utils::trace::details::Region", align 8
  %5 = alloca %"class.cv::utils::trace::details::Region", align 8
  call void @_ZN2cv5utils5trace7details6RegionC1ERKNS3_21LocationStaticStorageE(ptr noundef nonnull align 8 dereferenceable(12) %5, ptr noundef nonnull align 8 dereferenceable(32) @_ZZN2cv3hal13addRNGBias32fEPfPKfiE24__cv_trace_location_fn28)
  call void @llvm.lifetime.start.p0(i64 16, ptr nonnull %4)
  invoke void @_ZN2cv5utils5trace7details6RegionC1ERKNS3_21LocationStaticStorageE(ptr noundef nonnull align 8 dereferenceable(12) %4, ptr noundef nonnull align 8 dereferenceable(32) @_ZZN2cv3hal12cpu_baseline13addRNGBias32fEPfPKfiE24__cv_trace_location_fn82)
          to label %.noexc unwind label %27

.noexc:                                           ; preds = %3
  %6 = icmp sgt i32 %2, 0
  br i1 %6, label %.lr.ph.preheader.i, label %._crit_edge.i

.lr.ph.preheader.i:                               ; preds = %.noexc
  %wide.trip.count.i = zext nneg i32 %2 to i64
  br label %.lr.ph.i

.lr.ph.i:                                         ; preds = %.lr.ph.i, %.lr.ph.preheader.i
  %indvars.iv.i = phi i64 [ 0, %.lr.ph.preheader.i ], [ %indvars.iv.next.i, %.lr.ph.i ]
  %7 = shl nuw nsw i64 %indvars.iv.i, 1
  %8 = or disjoint i64 %7, 1
  %9 = getelementptr inbounds float, ptr %1, i64 %8
  %10 = load float, ptr %9, align 4
  %11 = getelementptr inbounds float, ptr %0, i64 %indvars.iv.i
  %12 = load float, ptr %11, align 4
  %13 = fadd float %10, %12
  store float %13, ptr %11, align 4
  %indvars.iv.next.i = add nuw nsw i64 %indvars.iv.i, 1
  %exitcond.not.i = icmp eq i64 %indvars.iv.next.i, %wide.trip.count.i
  br i1 %exitcond.not.i, label %._crit_edge.i, label %.lr.ph.i, !llvm.loop !7

._crit_edge.i:                                    ; preds = %.lr.ph.i, %.noexc
  %14 = getelementptr inbounds i8, ptr %4, i64 8
  %15 = load i32, ptr %14, align 8
  %.not.i.i = icmp eq i32 %15, 0
  br i1 %.not.i.i, label %20, label %16

16:                                               ; preds = %._crit_edge.i
  invoke void @_ZN2cv5utils5trace7details6Region7destroyEv(ptr noundef nonnull align 8 dereferenceable(12) %4)
          to label %20 unwind label %17

17:                                               ; preds = %16
  %18 = landingpad { ptr, i32 }
          catch ptr null
  %19 = extractvalue { ptr, i32 } %18, 0
  call void @__clang_call_terminate(ptr %19) #14
  unreachable

20:                                               ; preds = %16, %._crit_edge.i
  call void @llvm.lifetime.end.p0(i64 16, ptr nonnull %4)
  %21 = getelementptr inbounds i8, ptr %5, i64 8
  %22 = load i32, ptr %21, align 8
  %.not.i = icmp eq i32 %22, 0
  br i1 %.not.i, label %_ZN2cv5utils5trace7details6RegionD2Ev.exit, label %23

23:                                               ; preds = %20
  invoke void @_ZN2cv5utils5trace7details6Region7destroyEv(ptr noundef nonnull align 8 dereferenceable(12) %5)
          to label %_ZN2cv5utils5trace7details6RegionD2Ev.exit unwind label %24

24:                                               ; preds = %23
  %25 = landingpad { ptr, i32 }
          catch ptr null
  %26 = extractvalue { ptr, i32 } %25, 0
  call void @__clang_call_terminate(ptr %26) #14
  unreachable

_ZN2cv5utils5trace7details6RegionD2Ev.exit:       ; preds = %20, %23
  ret void

27:                                               ; preds = %3
  %28 = landingpad { ptr, i32 }
          cleanup
  call void @_ZN2cv5utils5trace7details6RegionD2Ev(ptr noundef nonnull align 8 dereferenceable(12) %5) #15
  resume { ptr, i32 } %28
}